#include <math.h>
#include <stdio.h>
#include <stdlib.h>
#include <string.h>

int main(){
	int n;
	scanf("%d",&n);
	char mulian[257];
	char zilian[1000][257];
	int i,j;
	for(i=0;i<n;i++){
		scanf("%s",mulian);
		for(j=0;mulian[j]!='\0';j++){
			if(mulian[j]=='A') zilian[i][j]='T';
			else if(mulian[j]=='T') zilian[i][j]='A';
			else if(mulian[j]=='G') zilian[i][j]='C';
			else zilian[i][j]='G';
		}
		zilian[i][j]='\0';
	}
	int k;
	for(k=0;k<n;k++){
		printf("%s\n",zilian[k]);
	}

	return 0;
}
